; Function Attrs: nounwind uwtable
define internal fastcc i64 @parse_iv(ptr noundef %0) unnamed_addr #0 {
  %2 = load i8, ptr %0, align 1
  %.not30.not.i = icmp eq i8 %2, 45
  %3 = icmp eq i8 %2, 43
  %4 = or i1 %.not30.not.i, %3
  %.025.idx.i = zext i1 %4 to i64
  %.025.i = getelementptr inbounds i8, ptr %0, i64 %.025.idx.i
  br label %5

5:                                                ; preds = %5, %1
  %.1.i = phi ptr [ %.025.i, %1 ], [ %8, %5 ]
  %6 = load i8, ptr %.1.i, align 1
  %7 = icmp eq i8 %6, 48
  %8 = getelementptr inbounds i8, ptr %.1.i, i64 1
  br i1 %7, label %5, label %.preheader.i

.preheader.i:                                     ; preds = %5
  %.023.i = select i1 %.not30.not.i, i64 -9223372036854775808, i64 9223372036854775807
  %9 = add i8 %6, -48
  %or.cond33.i = icmp ult i8 %9, 10
  br i1 %or.cond33.i, label %.lr.ph.i, label %.critedge.i

.lr.ph.i:                                         ; preds = %.preheader.i, %.lr.ph.i
  %10 = phi i8 [ %16, %.lr.ph.i ], [ %6, %.preheader.i ]
  %.02435.i = phi i64 [ %14, %.lr.ph.i ], [ 0, %.preheader.i ]
  %.234.i = phi ptr [ %15, %.lr.ph.i ], [ %.1.i, %.preheader.i ]
  %11 = mul i64 %.02435.i, 10
  %12 = zext nneg i8 %10 to i64
  %13 = add nsw i64 %12, -48
  %14 = add i64 %13, %11
  %15 = getelementptr inbounds i8, ptr %.234.i, i64 1
  %16 = load i8, ptr %15, align 1
  %17 = add i8 %16, -48
  %or.cond.i = icmp ult i8 %17, 10
  br i1 %or.cond.i, label %.lr.ph.i, label %.critedge.i

.critedge.i:                                      ; preds = %.lr.ph.i, %.preheader.i
  %.2.lcssa.i = phi ptr [ %.1.i, %.preheader.i ], [ %15, %.lr.ph.i ]
  %.024.lcssa.i = phi i64 [ 0, %.preheader.i ], [ %14, %.lr.ph.i ]
  %18 = ptrtoint ptr %.2.lcssa.i to i64
  %19 = ptrtoint ptr %.1.i to i64
  %20 = sub i64 %18, %19
  %21 = icmp sgt i64 %20, 19
  %22 = icmp ugt i64 %.024.lcssa.i, %.023.i
  %or.cond32.i = select i1 %21, i1 true, i1 %22
  br i1 %or.cond32.i, label %23, label %24

23:                                               ; preds = %.critedge.i
  tail call void (ptr, i32, ptr, ...) @php_error_docref(ptr noundef null, i32 noundef 2, ptr noundef nonnull @.str.15) #13
  br label %parse_iv2.exit

24:                                               ; preds = %.critedge.i
  %25 = sub i64 0, %.024.lcssa.i
  %26 = select i1 %.not30.not.i, i64 %25, i64 %.024.lcssa.i
  br label %parse_iv2.exit

parse_iv2.exit:                                   ; preds = %23, %24
  %.0.i = phi i64 [ %.023.i, %23 ], [ %26, %24 ]
  ret i64 %.0.i
}